target datalayout = "e-m:e-p270:32:32-p271:32:32-p272:64:64-i64:64-i128:128-f80:128-n8:16:32:64-S128"
target triple = "x86_64-pc-linux-gnu"

%struct.mbedtls_ssl_context = type { ptr, i32, i32, i32, i32, i32, ptr, ptr, ptr, ptr, ptr, ptr, ptr, ptr, ptr, ptr, ptr, ptr, ptr, ptr, ptr, ptr, ptr, ptr, ptr, ptr, ptr, ptr, ptr, ptr, ptr, ptr, ptr, i32, i64, i64, i16, i64, i64, i64, i64, i32, i32, i8, i8, i32, i8, ptr, ptr, ptr, ptr, ptr, ptr, ptr, i32, i64, i64, [8 x i8], i16, ptr, ptr, ptr, i64, i32, i64, [12 x i8], [12 x i8], [32 x i8], i8, i8, ptr, ptr, %union.mbedtls_ssl_user_data_t }
%union.mbedtls_ssl_user_data_t = type { i64 }

@.str = private unnamed_addr constant [130 x i8] c"generated/home/dtcxzyw/WorkSpace/Projects/compilers/llvm-opt-benchmark/bench/lief/bench_build/mbed_src/library/ssl_tls13_server.c\00", align 1
@.str.128 = private unnamed_addr constant [51 x i8] c"mbedtls_ssl_tls13_compute_resumption_master_secret\00", align 1

; Function Attrs: inlinehint nounwind uwtable
define internal void @mbedtls_ssl_handshake_set_state(ptr noundef %0, i32 noundef %1) #3 {
  %3 = alloca ptr, align 8
  %4 = alloca i32, align 4
  store ptr %0, ptr %3, align 8, !tbaa !3
  store i32 %1, ptr %4, align 4, !tbaa !8
  %5 = load i32, ptr %4, align 4, !tbaa !8
  %6 = load ptr, ptr %3, align 8, !tbaa !3
  %7 = getelementptr inbounds nuw %struct.mbedtls_ssl_context, ptr %6, i32 0, i32 1
  store i32 %5, ptr %7, align 8, !tbaa !10
  ret void
}

; Function Attrs: nounwind uwtable
define internal i32 @ssl_tls13_process_client_finished(ptr noundef %0) #0 {
  %2 = alloca i32, align 4
  %3 = alloca ptr, align 8
  %4 = alloca i32, align 4
  %5 = alloca i32, align 4
  store ptr %0, ptr %3, align 8, !tbaa !3
  call void @llvm.lifetime.start.p0(i64 4, ptr %4) #10
  store i32 -110, ptr %4, align 4, !tbaa !8
  %6 = load ptr, ptr %3, align 8, !tbaa !3
  %7 = call i32 @mbedtls_ssl_tls13_process_finished_message(ptr noundef %6)
  store i32 %7, ptr %4, align 4, !tbaa !8
  %8 = load i32, ptr %4, align 4, !tbaa !8
  %9 = icmp ne i32 %8, 0
  br i1 %9, label %10, label %12

10:                                               ; preds = %1
  %11 = load i32, ptr %4, align 4, !tbaa !8
  store i32 %11, ptr %2, align 4
  store i32 1, ptr %5, align 4
  br label %22

12:                                               ; preds = %1
  %13 = load ptr, ptr %3, align 8, !tbaa !3
  %14 = call i32 @mbedtls_ssl_tls13_compute_resumption_master_secret(ptr noundef %13)
  store i32 %14, ptr %4, align 4, !tbaa !8
  %15 = load i32, ptr %4, align 4, !tbaa !8
  %16 = icmp ne i32 %15, 0
  br i1 %16, label %17, label %20

17:                                               ; preds = %12
  %18 = load ptr, ptr %3, align 8, !tbaa !3
  %19 = load i32, ptr %4, align 4, !tbaa !8
  call void @mbedtls_debug_print_ret(ptr noundef %18, i32 noundef 1, ptr noundef @.str, i32 noundef 3086, ptr noundef @.str.128, i32 noundef %19)
  br label %20

20:                                               ; preds = %17, %12
  %21 = load ptr, ptr %3, align 8, !tbaa !3
  call void @mbedtls_ssl_handshake_set_state(ptr noundef %21, i32 noundef 15)
  store i32 0, ptr %2, align 4
  store i32 1, ptr %5, align 4
  br label %22

22:                                               ; preds = %20, %10
  call void @llvm.lifetime.end.p0(i64 4, ptr %4) #10
  %23 = load i32, ptr %2, align 4
  ret i32 %23
}