; Function Attrs: nounwind uwtable
define internal fastcc i32 @ssl_tls13_process_client_finished(ptr noundef %0) unnamed_addr #0 {
  %2 = tail call i32 @mbedtls_ssl_tls13_process_finished_message(ptr noundef %0) #9
  %.not = icmp eq i32 %2, 0
  br i1 %.not, label %3, label %8

3:                                                ; preds = %1
  %4 = tail call i32 @mbedtls_ssl_tls13_compute_resumption_master_secret(ptr noundef %0) #9
  %.not10 = icmp eq i32 %4, 0
  br i1 %.not10, label %6, label %5

5:                                                ; preds = %3
  tail call void @mbedtls_debug_print_ret(ptr noundef %0, i32 noundef 1, ptr noundef nonnull @.str, i32 noundef 3086, ptr noundef nonnull @.str.128, i32 noundef %4) #9
  br label %6

6:                                                ; preds = %5, %3
  %7 = getelementptr inbounds nuw i8, ptr %0, i64 8
  store i32 15, ptr %7, align 8, !tbaa !3
  br label %8

8:                                                ; preds = %1, %6
  ret i32 %2
}